; Function Attrs: mustprogress uwtable
define hidden noundef i64 @_ZN2cv10PngEncoder21writeToStreamOrBufferEPKvmP8_IO_FILE(ptr noundef nonnull readonly align 8 captures(none) dereferenceable(8960) %0, ptr noundef %1, i64 noundef %2, ptr noundef %3) local_unnamed_addr #5 align 2 personality ptr @__gxx_personality_v0 {
  %5 = icmp ne ptr %1, null
  %6 = icmp ne i64 %2, 0
  %or.cond = and i1 %5, %6
  br i1 %or.cond, label %7, label %30

7:                                                ; preds = %4
  %.not = icmp eq ptr %3, null
  br i1 %.not, label %10, label %8

8:                                                ; preds = %7
  %9 = tail call i64 @fwrite(ptr noundef nonnull %1, i64 noundef 1, i64 noundef %2, ptr noundef nonnull %3)
  br label %30

10:                                               ; preds = %7
  %11 = getelementptr inbounds nuw i8, ptr %0, i64 72
  %12 = load ptr, ptr %11, align 8, !tbaa !228
  %13 = getelementptr inbounds nuw i8, ptr %12, i64 8
  %14 = load ptr, ptr %13, align 8, !tbaa !133
  %15 = load ptr, ptr %12, align 8, !tbaa !91
  %16 = ptrtoint ptr %14 to i64
  %17 = ptrtoint ptr %15 to i64
  %18 = sub i64 %16, %17
  %19 = add i64 %18, %2
  %20 = icmp slt i64 %19, 0
  br i1 %20, label %21, label %26

21:                                               ; preds = %10
  %22 = tail call ptr @__cxa_allocate_exception(i64 16) #33
  invoke void @_ZNSt13runtime_errorC1EPKc(ptr noundef nonnull align 8 dereferenceable(16) %22, ptr noundef nonnull @.str.11)
          to label %23 unwind label %24

23:                                               ; preds = %21
  tail call void @__cxa_throw(ptr nonnull %22, ptr nonnull @_ZTISt13runtime_error, ptr nonnull @_ZNSt13runtime_errorD1Ev) #36
  unreachable

24:                                               ; preds = %21
  %25 = landingpad { ptr, i32 }
          cleanup
  tail call void @__cxa_free_exception(ptr nonnull %22) #33
  resume { ptr, i32 } %25

26:                                               ; preds = %10
  tail call void @_ZNSt6vectorIhSaIhEE6resizeEm(ptr noundef nonnull align 8 dereferenceable(24) %12, i64 noundef %19)
  %27 = load ptr, ptr %11, align 8, !tbaa !228
  %28 = load ptr, ptr %27, align 8, !tbaa !91
  %29 = getelementptr inbounds nuw i8, ptr %28, i64 %18
  tail call void @llvm.memcpy.p0.p0.i64(ptr nonnull align 1 %29, ptr nonnull align 1 %1, i64 %2, i1 false)
  br label %30

30:                                               ; preds = %4, %26, %8
  %.0 = phi i64 [ %9, %8 ], [ %2, %26 ], [ 0, %4 ]
  ret i64 %.0
}